#include <math.h>
#include <stdio.h>
#include <stdlib.h>
#include <string.h>

char c[500];
int f(int e0,int s0);
int main(){
	int i,j,k,e,s;

	scanf("%s",c); 
	int len;
	len=strlen(c);
	for(i=0;i<len;i++){
		for(j=0;j<len;j++){
			if(j-i>=0&&i+j+1<=len){
				if(c[j-i]==c[i+j+1]){
					s=j-i;
					e=i+j+1;
					if(f(e,s)){
					for(k=s;k<=e;k++)
						printf("%c",c[k]);
					printf("\n");
					}
				}
			}
		}
	}
	return 0;
}
int f(int e0,int s0){
	int i0,sum=0;

	for(i0=s0;i0<=e0;i0++){
		if(c[i0]!=c[s0+e0-i0])
			sum++;
	}
	if(sum==0)
		return 1;
	else return 0;
}